; Function Attrs: nounwind uwtable
define internal i32 @OnUpdateSessionLong(ptr noundef %0, ptr noundef %1, ptr noundef %2, ptr noundef %3, ptr noundef %4, i32 noundef %5) #0 {
  %7 = load i32, ptr getelementptr inbounds (%struct._php_ps_globals, ptr @ps_globals, i64 0, i32 14), align 8
  %8 = icmp eq i32 %7, 2
  br i1 %8, label %9, label %10

9:                                                ; preds = %6
  tail call void (ptr, i32, ptr, ...) @php_error_docref(ptr noundef null, i32 noundef 2, ptr noundef nonnull @.str.237) #23
  br label %17

10:                                               ; preds = %6
  %11 = load i8, ptr getelementptr inbounds (%struct._sapi_globals_struct, ptr @sapi_globals, i64 0, i32 5), align 1
  %12 = icmp ne i8 %11, 0
  %13 = icmp ne i32 %5, 8
  %or.cond = and i1 %13, %12
  br i1 %or.cond, label %14, label %15

14:                                               ; preds = %10
  tail call void (ptr, i32, ptr, ...) @php_error_docref(ptr noundef null, i32 noundef 2, ptr noundef nonnull @.str.238) #23
  br label %17

15:                                               ; preds = %10
  %16 = tail call i32 @OnUpdateLong(ptr noundef %0, ptr noundef %1, ptr noundef %2, ptr noundef %3, ptr noundef %4, i32 noundef %5) #23
  br label %17

17:                                               ; preds = %15, %14, %9
  %.0 = phi i32 [ -1, %9 ], [ -1, %14 ], [ %16, %15 ]
  ret i32 %.0
}